target datalayout = "e-m:e-p270:32:32-p271:32:32-p272:64:64-i64:64-i128:128-f80:128-n8:16:32:64-S128"
target triple = "x86_64-pc-linux-gnu"

%struct.AVRational = type { i32, i32 }
%struct.AVChannelLayout = type { i32, i32, %union.anon.0, ptr }
%union.anon.0 = type { i64 }
%struct.CDGraphicsContext = type { ptr, i32, i32, [16 x i8], i32 }
%struct.AVFrame = type { [8 x ptr], [8 x i32], ptr, i32, i32, i32, i32, i32, %struct.AVRational, i64, i64, %struct.AVRational, i32, ptr, i32, i32, [8 x ptr], ptr, i32, ptr, i32, i32, i32, i32, i32, i32, i32, i64, ptr, i32, ptr, ptr, i64, i64, i64, i64, ptr, %struct.AVChannelLayout, i64 }

; Function Attrs: nounwind uwtable
define internal void @cdg_border_preset(ptr noundef %0, ptr noundef %1) #1 {
  %3 = alloca ptr, align 8
  %4 = alloca ptr, align 8
  %5 = alloca i64, align 8
  %6 = alloca ptr, align 8
  %7 = alloca i32, align 4
  %8 = alloca i32, align 4
  %9 = alloca i32, align 4
  %10 = alloca i32, align 4
  store ptr %0, ptr %3, align 8, !tbaa !29
  store ptr %1, ptr %4, align 8, !tbaa !48
  call void @llvm.lifetime.start.p0(i64 8, ptr %5) #8
  %11 = load ptr, ptr %3, align 8, !tbaa !29
  %12 = getelementptr inbounds nuw %struct.CDGraphicsContext, ptr %11, i32 0, i32 0
  %13 = load ptr, ptr %12, align 8, !tbaa !31
  %14 = getelementptr inbounds nuw %struct.AVFrame, ptr %13, i32 0, i32 1
  %15 = getelementptr inbounds [8 x i32], ptr %14, i64 0, i64 0
  %16 = load i32, ptr %15, align 8, !tbaa !34
  %17 = sext i32 %16 to i64
  store i64 %17, ptr %5, align 8, !tbaa !64
  call void @llvm.lifetime.start.p0(i64 8, ptr %6) #8
  %18 = load ptr, ptr %3, align 8, !tbaa !29
  %19 = getelementptr inbounds nuw %struct.CDGraphicsContext, ptr %18, i32 0, i32 0
  %20 = load ptr, ptr %19, align 8, !tbaa !31
  %21 = getelementptr inbounds nuw %struct.AVFrame, ptr %20, i32 0, i32 0
  %22 = getelementptr inbounds [8 x ptr], ptr %21, i64 0, i64 0
  %23 = load ptr, ptr %22, align 8, !tbaa !48
  store ptr %23, ptr %6, align 8, !tbaa !48
  call void @llvm.lifetime.start.p0(i64 4, ptr %7) #8
  %24 = load ptr, ptr %4, align 8, !tbaa !48
  %25 = getelementptr inbounds i8, ptr %24, i64 0
  %26 = load i8, ptr %25, align 1, !tbaa !35
  %27 = zext i8 %26 to i32
  %28 = and i32 %27, 15
  store i32 %28, ptr %7, align 4, !tbaa !34
  %29 = load ptr, ptr %4, align 8, !tbaa !48
  %30 = getelementptr inbounds i8, ptr %29, i64 1
  %31 = load i8, ptr %30, align 1, !tbaa !35
  %32 = zext i8 %31 to i32
  %33 = and i32 %32, 15
  %34 = icmp ne i32 %33, 0
  br i1 %34, label %109, label %35

35:                                               ; preds = %2
  call void @llvm.lifetime.start.p0(i64 4, ptr %8) #8
  store i32 0, ptr %8, align 4, !tbaa !34
  br label %36

36:                                               ; preds = %55, %35
  %37 = load i32, ptr %8, align 4, !tbaa !34
  %38 = icmp slt i32 %37, 12
  br i1 %38, label %40, label %39

39:                                               ; preds = %36
  call void @llvm.lifetime.end.p0(i64 4, ptr %8) #8
  br label %58

40:                                               ; preds = %36
  %41 = load ptr, ptr %6, align 8, !tbaa !48
  %42 = load i32, ptr %8, align 4, !tbaa !34
  %43 = sext i32 %42 to i64
  %44 = load i64, ptr %5, align 8, !tbaa !64
  %45 = mul nsw i64 %43, %44
  %46 = getelementptr inbounds i8, ptr %41, i64 %45
  %47 = load i32, ptr %7, align 4, !tbaa !34
  %48 = trunc i32 %47 to i8
  %49 = load ptr, ptr %3, align 8, !tbaa !29
  %50 = getelementptr inbounds nuw %struct.CDGraphicsContext, ptr %49, i32 0, i32 0
  %51 = load ptr, ptr %50, align 8, !tbaa !31
  %52 = getelementptr inbounds nuw %struct.AVFrame, ptr %51, i32 0, i32 3
  %53 = load i32, ptr %52, align 8, !tbaa !65
  %54 = sext i32 %53 to i64
  call void @llvm.memset.p0.i64(ptr align 1 %46, i8 %48, i64 %54, i1 false)
  br label %55

55:                                               ; preds = %40
  %56 = load i32, ptr %8, align 4, !tbaa !34
  %57 = add nsw i32 %56, 1
  store i32 %57, ptr %8, align 4, !tbaa !34
  br label %36, !llvm.loop !70

58:                                               ; preds = %39
  call void @llvm.lifetime.start.p0(i64 4, ptr %9) #8
  store i32 204, ptr %9, align 4, !tbaa !34
  br label %59

59:                                               ; preds = %78, %58
  %60 = load i32, ptr %9, align 4, !tbaa !34
  %61 = icmp slt i32 %60, 216
  br i1 %61, label %63, label %62

62:                                               ; preds = %59
  call void @llvm.lifetime.end.p0(i64 4, ptr %9) #8
  br label %81

63:                                               ; preds = %59
  %64 = load ptr, ptr %6, align 8, !tbaa !48
  %65 = load i32, ptr %9, align 4, !tbaa !34
  %66 = sext i32 %65 to i64
  %67 = load i64, ptr %5, align 8, !tbaa !64
  %68 = mul nsw i64 %66, %67
  %69 = getelementptr inbounds i8, ptr %64, i64 %68
  %70 = load i32, ptr %7, align 4, !tbaa !34
  %71 = trunc i32 %70 to i8
  %72 = load ptr, ptr %3, align 8, !tbaa !29
  %73 = getelementptr inbounds nuw %struct.CDGraphicsContext, ptr %72, i32 0, i32 0
  %74 = load ptr, ptr %73, align 8, !tbaa !31
  %75 = getelementptr inbounds nuw %struct.AVFrame, ptr %74, i32 0, i32 3
  %76 = load i32, ptr %75, align 8, !tbaa !65
  %77 = sext i32 %76 to i64
  call void @llvm.memset.p0.i64(ptr align 1 %69, i8 %71, i64 %77, i1 false)
  br label %78

78:                                               ; preds = %63
  %79 = load i32, ptr %9, align 4, !tbaa !34
  %80 = add nsw i32 %79, 1
  store i32 %80, ptr %9, align 4, !tbaa !34
  br label %59, !llvm.loop !71

81:                                               ; preds = %62
  call void @llvm.lifetime.start.p0(i64 4, ptr %10) #8
  store i32 12, ptr %10, align 4, !tbaa !34
  br label %82

82:                                               ; preds = %105, %81
  %83 = load i32, ptr %10, align 4, !tbaa !34
  %84 = icmp slt i32 %83, 204
  br i1 %84, label %86, label %85

85:                                               ; preds = %82
  call void @llvm.lifetime.end.p0(i64 4, ptr %10) #8
  br label %108

86:                                               ; preds = %82
  %87 = load ptr, ptr %6, align 8, !tbaa !48
  %88 = load i32, ptr %10, align 4, !tbaa !34
  %89 = sext i32 %88 to i64
  %90 = load i64, ptr %5, align 8, !tbaa !64
  %91 = mul nsw i64 %89, %90
  %92 = getelementptr inbounds i8, ptr %87, i64 %91
  %93 = load i32, ptr %7, align 4, !tbaa !34
  %94 = trunc i32 %93 to i8
  call void @llvm.memset.p0.i64(ptr align 1 %92, i8 %94, i64 6, i1 false)
  %95 = load ptr, ptr %6, align 8, !tbaa !48
  %96 = getelementptr inbounds i8, ptr %95, i64 300
  %97 = getelementptr inbounds i8, ptr %96, i64 -6
  %98 = load i32, ptr %10, align 4, !tbaa !34
  %99 = sext i32 %98 to i64
  %100 = load i64, ptr %5, align 8, !tbaa !64
  %101 = mul nsw i64 %99, %100
  %102 = getelementptr inbounds i8, ptr %97, i64 %101
  %103 = load i32, ptr %7, align 4, !tbaa !34
  %104 = trunc i32 %103 to i8
  call void @llvm.memset.p0.i64(ptr align 1 %102, i8 %104, i64 6, i1 false)
  br label %105

105:                                              ; preds = %86
  %106 = load i32, ptr %10, align 4, !tbaa !34
  %107 = add nsw i32 %106, 1
  store i32 %107, ptr %10, align 4, !tbaa !34
  br label %82, !llvm.loop !72

108:                                              ; preds = %85
  br label %109

109:                                              ; preds = %108, %2
  call void @llvm.lifetime.end.p0(i64 4, ptr %7) #8
  call void @llvm.lifetime.end.p0(i64 8, ptr %6) #8
  call void @llvm.lifetime.end.p0(i64 8, ptr %5) #8
  ret void
}