; Function Attrs: nofree norecurse nosync nounwind memory(readwrite, inaccessiblemem: none) uwtable
define internal fastcc void @cdg_border_preset(ptr noundef readonly captures(none) %0, i8 %.0.val, i8 %.1.val) unnamed_addr #2 {
  %2 = load ptr, ptr %0, align 8, !tbaa !27
  %3 = getelementptr inbounds nuw i8, ptr %2, i64 64
  %4 = load i32, ptr %3, align 8, !tbaa !38
  %5 = sext i32 %4 to i64
  %6 = load ptr, ptr %2, align 8, !tbaa !37
  %7 = and i8 %.0.val, 15
  %8 = and i8 %.1.val, 15
  %.not = icmp eq i8 %8, 0
  br i1 %.not, label %.preheader2, label %.loopexit

.preheader2:                                      ; preds = %1, %.preheader2
  %indvars.iv = phi i64 [ %indvars.iv.next, %.preheader2 ], [ 0, %1 ]
  %9 = mul nsw i64 %indvars.iv, %5
  %10 = getelementptr inbounds i8, ptr %6, i64 %9
  %11 = load ptr, ptr %0, align 8, !tbaa !27
  %12 = getelementptr inbounds nuw i8, ptr %11, i64 104
  %13 = load i32, ptr %12, align 8, !tbaa !47
  %14 = sext i32 %13 to i64
  tail call void @llvm.memset.p0.i64(ptr align 1 %10, i8 %7, i64 %14, i1 false)
  %indvars.iv.next = add nuw nsw i64 %indvars.iv, 1
  %exitcond.not = icmp eq i64 %indvars.iv.next, 12
  br i1 %exitcond.not, label %.preheader1, label %.preheader2, !llvm.loop !52

.preheader:                                       ; preds = %.preheader1
  %15 = getelementptr inbounds nuw i8, ptr %6, i64 294
  br label %22

.preheader1:                                      ; preds = %.preheader2, %.preheader1
  %indvars.iv7 = phi i64 [ %indvars.iv.next8, %.preheader1 ], [ 204, %.preheader2 ]
  %16 = mul nsw i64 %indvars.iv7, %5
  %17 = getelementptr inbounds i8, ptr %6, i64 %16
  %18 = load ptr, ptr %0, align 8, !tbaa !27
  %19 = getelementptr inbounds nuw i8, ptr %18, i64 104
  %20 = load i32, ptr %19, align 8, !tbaa !47
  %21 = sext i32 %20 to i64
  tail call void @llvm.memset.p0.i64(ptr align 1 %17, i8 %7, i64 %21, i1 false)
  %indvars.iv.next8 = add nuw nsw i64 %indvars.iv7, 1
  %exitcond10.not = icmp eq i64 %indvars.iv.next8, 216
  br i1 %exitcond10.not, label %.preheader, label %.preheader1, !llvm.loop !53

22:                                               ; preds = %.preheader, %22
  %indvars.iv11 = phi i64 [ 12, %.preheader ], [ %indvars.iv.next12, %22 ]
  %23 = mul nsw i64 %indvars.iv11, %5
  %24 = getelementptr inbounds i8, ptr %6, i64 %23
  tail call void @llvm.memset.p0.i64(ptr noundef nonnull align 1 dereferenceable(6) %24, i8 %7, i64 6, i1 false)
  %25 = getelementptr inbounds i8, ptr %15, i64 %23
  tail call void @llvm.memset.p0.i64(ptr noundef nonnull align 1 dereferenceable(6) %25, i8 %7, i64 6, i1 false)
  %indvars.iv.next12 = add nuw nsw i64 %indvars.iv11, 1
  %exitcond14.not = icmp eq i64 %indvars.iv.next12, 204
  br i1 %exitcond14.not, label %.loopexit, label %22, !llvm.loop !54

.loopexit:                                        ; preds = %22, %1
  ret void
}